#include <math.h>
#include <stdio.h>
#include <stdlib.h>
#include <string.h>

int main(int argc, char* argv[])
{
	int a,b,c[1001],i,j,m=1;
	scanf("%d%d",&a,&b);
for(i=0;i<a;i++){
scanf("%d",&c[i]);
}
	for(i=0;i<a;i++){
		if(m==0) break;
for(j=0;j<a&&j!=i;j++){
	if(c[i]+c[j]==b) { printf("yes");
	m=0;
	break;
	}
	}}
	if(m==1) printf("no");
return 0;
}


